target datalayout = "e-m:e-p270:32:32-p271:32:32-p272:64:64-i64:64-i128:128-f80:128-n8:16:32:64-S128"
target triple = "x86_64-pc-linux-gnu"

%struct.H5G_loc_t = type { ptr, ptr }
%struct.H5O_loc_t = type { ptr, i64, i8 }
%struct.H5G_name_t = type { ptr, ptr, i32 }

@.str.3 = private unnamed_addr constant [100 x i8] c"generated/home/dtcxzyw/WorkSpace/Projects/compilers/llvm-opt-benchmark/bench/hdf5/hdf5/src/H5Aint.c\00", align 1
@H5E_ATTR_g = external global i64, align 8
@H5E_NOTFOUND_g = external global i64, align 8
@.str.28 = private unnamed_addr constant [17 x i8] c"object not found\00", align 1
@H5E_CANTRELEASE_g = external global i64, align 8
@.str.30 = private unnamed_addr constant [20 x i8] c"can't free location\00", align 1
@__func__.H5A__rename_by_name = private unnamed_addr constant [20 x i8] c"H5A__rename_by_name\00", align 1
@H5E_CANTRENAME_g = external global i64, align 8
@.str.90 = private unnamed_addr constant [23 x i8] c"can't rename attribute\00", align 1

; Function Attrs: nounwind uwtable
define i32 @H5A__rename_by_name(ptr %0, ptr %1, ptr noundef %2, ptr noundef %3, ptr noundef %4) #0 {
  %6 = alloca %struct.H5G_loc_t, align 8
  %7 = alloca ptr, align 8
  %8 = alloca ptr, align 8
  %9 = alloca ptr, align 8
  %10 = alloca %struct.H5G_loc_t, align 8
  %11 = alloca %struct.H5G_name_t, align 8
  %12 = alloca %struct.H5O_loc_t, align 8
  %13 = alloca i8, align 1
  %14 = alloca i32, align 4
  %15 = alloca i8, align 1
  %16 = getelementptr inbounds { ptr, ptr }, ptr %6, i32 0, i32 0
  store ptr %0, ptr %16, align 8
  %17 = getelementptr inbounds { ptr, ptr }, ptr %6, i32 0, i32 1
  store ptr %1, ptr %17, align 8
  store ptr %2, ptr %7, align 8
  store ptr %3, ptr %8, align 8
  store ptr %4, ptr %9, align 8
  store i8 0, ptr %13, align 1
  store i32 0, ptr %14, align 4
  store i8 0, ptr %15, align 1
  %18 = load ptr, ptr %8, align 8
  %19 = load ptr, ptr %9, align 8
  %20 = call i32 @strcmp(ptr noundef %18, ptr noundef %19) #5
  %21 = icmp ne i32 %20, 0
  br i1 %21, label %22, label %67

22:                                               ; preds = %5
  %23 = getelementptr inbounds %struct.H5G_loc_t, ptr %10, i32 0, i32 0
  store ptr %12, ptr %23, align 8
  %24 = getelementptr inbounds %struct.H5G_loc_t, ptr %10, i32 0, i32 1
  store ptr %11, ptr %24, align 8
  %25 = call i32 @H5G_loc_reset(ptr noundef %10)
  %26 = load ptr, ptr %7, align 8
  %27 = call i32 @H5G_loc_find(ptr noundef %6, ptr noundef %26, ptr noundef %10)
  %28 = icmp slt i32 %27, 0
  br i1 %28, label %29, label %44

29:                                               ; preds = %22
  br label %30

30:                                               ; preds = %29
  br label %31

31:                                               ; preds = %30
  br label %32

32:                                               ; preds = %31
  %33 = load i64, ptr @H5E_ATTR_g, align 8
  %34 = load i64, ptr @H5E_NOTFOUND_g, align 8
  %35 = call i32 (ptr, ptr, i32, i64, i64, ptr, ...) @H5E_printf_stack(ptr noundef @.str.3, ptr noundef @__func__.H5A__rename_by_name, i32 noundef 2510, i64 noundef %33, i64 noundef %34, ptr noundef @.str.28)
  br label %36

36:                                               ; preds = %32
  store i8 1, ptr %15, align 1
  %37 = load i8, ptr %15, align 1
  %38 = trunc i8 %37 to i1
  %39 = zext i1 %38 to i8
  store i8 %39, ptr %15, align 1
  br label %40

40:                                               ; preds = %36
  br label %41

41:                                               ; preds = %40
  store i32 -1, ptr %14, align 4
  br label %68

42:                                               ; No predecessors!
  br label %43

43:                                               ; preds = %42
  br label %44

44:                                               ; preds = %43, %22
  store i8 1, ptr %13, align 1
  %45 = getelementptr inbounds %struct.H5G_loc_t, ptr %10, i32 0, i32 0
  %46 = load ptr, ptr %45, align 8
  %47 = load ptr, ptr %8, align 8
  %48 = load ptr, ptr %9, align 8
  %49 = call i32 @H5O__attr_rename(ptr noundef %46, ptr noundef %47, ptr noundef %48)
  %50 = icmp slt i32 %49, 0
  br i1 %50, label %51, label %66

51:                                               ; preds = %44
  br label %52

52:                                               ; preds = %51
  br label %53

53:                                               ; preds = %52
  br label %54

54:                                               ; preds = %53
  %55 = load i64, ptr @H5E_ATTR_g, align 8
  %56 = load i64, ptr @H5E_CANTRENAME_g, align 8
  %57 = call i32 (ptr, ptr, i32, i64, i64, ptr, ...) @H5E_printf_stack(ptr noundef @.str.3, ptr noundef @__func__.H5A__rename_by_name, i32 noundef 2515, i64 noundef %55, i64 noundef %56, ptr noundef @.str.90)
  br label %58

58:                                               ; preds = %54
  store i8 1, ptr %15, align 1
  %59 = load i8, ptr %15, align 1
  %60 = trunc i8 %59 to i1
  %61 = zext i1 %60 to i8
  store i8 %61, ptr %15, align 1
  br label %62

62:                                               ; preds = %58
  br label %63

63:                                               ; preds = %62
  store i32 -1, ptr %14, align 4
  br label %68

64:                                               ; No predecessors!
  br label %65

65:                                               ; preds = %64
  br label %66

66:                                               ; preds = %65, %44
  br label %67

67:                                               ; preds = %66, %5
  br label %68

68:                                               ; preds = %67, %63, %41
  %69 = load i8, ptr %13, align 1
  %70 = trunc i8 %69 to i1
  br i1 %70, label %71, label %87

71:                                               ; preds = %68
  %72 = call i32 @H5G_loc_free(ptr noundef %10)
  %73 = icmp slt i32 %72, 0
  br i1 %73, label %74, label %87

74:                                               ; preds = %71
  br label %75

75:                                               ; preds = %74
  br label %76

76:                                               ; preds = %75
  br label %77

77:                                               ; preds = %76
  %78 = load i64, ptr @H5E_ATTR_g, align 8
  %79 = load i64, ptr @H5E_CANTRELEASE_g, align 8
  %80 = call i32 (ptr, ptr, i32, i64, i64, ptr, ...) @H5E_printf_stack(ptr noundef @.str.3, ptr noundef @__func__.H5A__rename_by_name, i32 noundef 2521, i64 noundef %78, i64 noundef %79, ptr noundef @.str.30)
  br label %81

81:                                               ; preds = %77
  store i8 1, ptr %15, align 1
  %82 = load i8, ptr %15, align 1
  %83 = trunc i8 %82 to i1
  %84 = zext i1 %83 to i8
  store i8 %84, ptr %15, align 1
  br label %85

85:                                               ; preds = %81
  store i32 -1, ptr %14, align 4
  br label %86

86:                                               ; preds = %85
  br label %87

87:                                               ; preds = %86, %71, %68
  %88 = load i32, ptr %14, align 4
  ret i32 %88
}