; Function Attrs: nounwind uwtable
define range(i32 -1, 1) i32 @H5A__rename_by_name(ptr %0, ptr %1, ptr noundef %2, ptr noundef %3, ptr noundef %4) local_unnamed_addr #0 {
  %6 = alloca %struct.H5G_loc_t, align 8
  %7 = alloca %struct.H5G_loc_t, align 8
  %8 = alloca %struct.H5G_name_t, align 8
  %9 = alloca %struct.H5O_loc_t, align 8
  store ptr %0, ptr %6, align 8
  %10 = getelementptr inbounds i8, ptr %6, i64 8
  store ptr %1, ptr %10, align 8
  %11 = tail call i32 @strcmp(ptr noundef nonnull dereferenceable(1) %3, ptr noundef nonnull dereferenceable(1) %4) #14
  %.not = icmp eq i32 %11, 0
  br i1 %.not, label %36, label %12

12:                                               ; preds = %5
  store ptr %9, ptr %7, align 8
  %13 = getelementptr inbounds i8, ptr %7, i64 8
  store ptr %8, ptr %13, align 8
  %14 = call i32 @H5G_loc_reset(ptr noundef nonnull %7) #13
  %15 = call i32 @H5G_loc_find(ptr noundef nonnull %6, ptr noundef %2, ptr noundef nonnull %7) #13
  %16 = icmp slt i32 %15, 0
  br i1 %16, label %17, label %21

17:                                               ; preds = %12
  %18 = load i64, ptr @H5E_ATTR_g, align 8
  %19 = load i64, ptr @H5E_NOTFOUND_g, align 8
  %20 = call i32 (ptr, ptr, i32, i64, i64, ptr, ...) @H5E_printf_stack(ptr noundef nonnull @.str.3, ptr noundef nonnull @__func__.H5A__rename_by_name, i32 noundef 2510, i64 noundef %18, i64 noundef %19, ptr noundef nonnull @.str.28) #13
  br label %36

21:                                               ; preds = %12
  %22 = load ptr, ptr %7, align 8
  %23 = call i32 @H5O__attr_rename(ptr noundef %22, ptr noundef %3, ptr noundef %4) #13
  %24 = icmp slt i32 %23, 0
  br i1 %24, label %25, label %29

25:                                               ; preds = %21
  %26 = load i64, ptr @H5E_ATTR_g, align 8
  %27 = load i64, ptr @H5E_CANTRENAME_g, align 8
  %28 = call i32 (ptr, ptr, i32, i64, i64, ptr, ...) @H5E_printf_stack(ptr noundef nonnull @.str.3, ptr noundef nonnull @__func__.H5A__rename_by_name, i32 noundef 2515, i64 noundef %26, i64 noundef %27, ptr noundef nonnull @.str.90) #13
  br label %29

29:                                               ; preds = %25, %21
  %.0.ph = phi i32 [ 0, %21 ], [ -1, %25 ]
  %30 = call i32 @H5G_loc_free(ptr noundef nonnull %7) #13
  %31 = icmp slt i32 %30, 0
  br i1 %31, label %32, label %36

32:                                               ; preds = %29
  %33 = load i64, ptr @H5E_ATTR_g, align 8
  %34 = load i64, ptr @H5E_CANTRELEASE_g, align 8
  %35 = call i32 (ptr, ptr, i32, i64, i64, ptr, ...) @H5E_printf_stack(ptr noundef nonnull @.str.3, ptr noundef nonnull @__func__.H5A__rename_by_name, i32 noundef 2521, i64 noundef %33, i64 noundef %34, ptr noundef nonnull @.str.30) #13
  br label %36

36:                                               ; preds = %17, %5, %32, %29
  %.1 = phi i32 [ -1, %32 ], [ %.0.ph, %29 ], [ -1, %17 ], [ 0, %5 ]
  ret i32 %.1
}